target datalayout = "e-m:e-p270:32:32-p271:32:32-p272:64:64-i64:64-i128:128-f80:128-n8:16:32:64-S128"
target triple = "x86_64-unknown-linux-gnu"

%"class.std::set.0" = type { %"class.std::_Rb_tree.1" }
%"class.std::_Rb_tree.1" = type { %"struct.std::_Rb_tree<QuantLib::Observer *, QuantLib::Observer *, std::_Identity<QuantLib::Observer *>, std::less<QuantLib::Observer *>>::_Rb_tree_impl" }
%"struct.std::_Rb_tree<QuantLib::Observer *, QuantLib::Observer *, std::_Identity<QuantLib::Observer *>, std::less<QuantLib::Observer *>>::_Rb_tree_impl" = type { [8 x i8], %"struct.std::_Rb_tree_header" }
%"struct.std::_Rb_tree_header" = type { %"struct.std::_Rb_tree_node_base", i64 }
%"struct.std::_Rb_tree_node_base" = type { i32, ptr, ptr, ptr }
%"class.std::set" = type { %"class.std::_Rb_tree" }
%"class.std::_Rb_tree" = type { %"struct.std::_Rb_tree<boost::shared_ptr<QuantLib::Observable>, boost::shared_ptr<QuantLib::Observable>, std::_Identity<boost::shared_ptr<QuantLib::Observable>>, std::less<boost::shared_ptr<QuantLib::Observable>>>::_Rb_tree_impl" }
%"struct.std::_Rb_tree<boost::shared_ptr<QuantLib::Observable>, boost::shared_ptr<QuantLib::Observable>, std::_Identity<boost::shared_ptr<QuantLib::Observable>>, std::less<boost::shared_ptr<QuantLib::Observable>>>::_Rb_tree_impl" = type { [8 x i8], %"struct.std::_Rb_tree_header" }
%"class.boost::detail::shared_count" = type { ptr }
%"class.QuantLib::Observable" = type { ptr, %"class.std::set.0" }
%"class.QuantLib::Observer" = type { ptr, %"class.std::set" }
%"class.QuantLib::EurodollarFuturesImpliedStdDevQuote" = type { %"class.QuantLib::Quote.base", %"class.QuantLib::LazyObject.base", double, double, double, i32, %"class.QuantLib::Handle", %"class.QuantLib::Handle", %"class.QuantLib::Handle", %"class.QuantLib::Observable", %"class.QuantLib::Observer" }
%"class.QuantLib::Quote.base" = type { ptr }
%"class.QuantLib::LazyObject.base" = type <{ ptr, i8, i8, i8, i8 }>
%"class.QuantLib::Handle" = type { %"class.boost::shared_ptr.18" }
%"class.boost::shared_ptr.18" = type { ptr, %"class.boost::detail::shared_count" }
%"class.boost::shared_ptr.19" = type { ptr, %"class.boost::detail::shared_count" }

@.str.6 = private unnamed_addr constant [8 x i8] c"px != 0\00", align 1
@.str.7 = private unnamed_addr constant [102 x i8] c"generated/home/dtcxzyw/WorkSpace/SDK/vcpkg/installed/x64-linux/include/boost/smart_ptr/shared_ptr.hpp\00", align 1
@__PRETTY_FUNCTION__._ZNK5boost10shared_ptrIN8QuantLib5QuoteEEptEv = private unnamed_addr constant [127 x i8] c"typename boost::detail::sp_member_access<T>::type boost::shared_ptr<QuantLib::Quote>::operator->() const [T = QuantLib::Quote]\00", align 1

; Function Attrs: mustprogress uwtable
define linkonce_odr noundef ptr @_ZNK5boost10shared_ptrIN8QuantLib5QuoteEEptEv(ptr noundef nonnull align 8 dereferenceable(16) %this) #2 comdat align 2 {
entry:
  %this.addr = alloca ptr, align 8
  store ptr %this, ptr %this.addr, align 8, !tbaa !3
  %this1 = load ptr, ptr %this.addr, align 8
  %px = getelementptr inbounds nuw %"class.boost::shared_ptr.19", ptr %this1, i32 0, i32 0
  %0 = load ptr, ptr %px, align 8, !tbaa !37
  %cmp = icmp ne ptr %0, null
  %lnot = xor i1 %cmp, true
  %lnot2 = xor i1 %lnot, true
  %conv = zext i1 %lnot2 to i64
  %expval = call i64 @llvm.expect.i64(i64 %conv, i64 1)
  %tobool = icmp ne i64 %expval, 0
  br i1 %tobool, label %cond.true, label %cond.false

cond.true:                                        ; preds = %entry
  br label %cond.end

cond.false:                                       ; preds = %entry
  call void @_ZN5boost16assertion_failedEPKcS1_S1_l(ptr noundef @.str.6, ptr noundef @__PRETTY_FUNCTION__._ZNK5boost10shared_ptrIN8QuantLib5QuoteEEptEv, ptr noundef @.str.7, i64 noundef 784)
  br label %cond.end

cond.end:                                         ; preds = %cond.false, %cond.true
  %px3 = getelementptr inbounds nuw %"class.boost::shared_ptr.19", ptr %this1, i32 0, i32 0
  %1 = load ptr, ptr %px3, align 8, !tbaa !37
  ret ptr %1
}

; Function Attrs: mustprogress uwtable
define void @_ZNK8QuantLib35EurodollarFuturesImpliedStdDevQuote19performCalculationsEv(ptr noundef nonnull align 8 dereferenceable(104) %this) unnamed_addr #2 align 2 {
entry:
  %this.addr = alloca ptr, align 8
  %forwardValue = alloca double, align 8
  store ptr %this, ptr %this.addr, align 8, !tbaa !3
  %this1 = load ptr, ptr %this.addr, align 8
  call void @llvm.lifetime.start.p0(i64 8, ptr %forwardValue) #12
  %forward_ = getelementptr inbounds nuw %"class.QuantLib::EurodollarFuturesImpliedStdDevQuote", ptr %this1, i32 0, i32 6
  %call = call noundef nonnull align 8 dereferenceable(16) ptr @_ZNK8QuantLib6HandleINS_5QuoteEEptEv(ptr noundef nonnull align 8 dereferenceable(16) %forward_)
  %call2 = call noundef ptr @_ZNK5boost10shared_ptrIN8QuantLib5QuoteEEptEv(ptr noundef nonnull align 8 dereferenceable(16) %call)
  %vtable = load ptr, ptr %call2, align 8, !tbaa !20
  %vfn = getelementptr inbounds ptr, ptr %vtable, i64 2
  %0 = load ptr, ptr %vfn, align 8
  %call3 = call noundef double %0(ptr noundef nonnull align 8 dereferenceable(8) %call2)
  %sub = fsub double 1.000000e+02, %call3
  store double %sub, ptr %forwardValue, align 8, !tbaa !24
  %strike_ = getelementptr inbounds nuw %"class.QuantLib::EurodollarFuturesImpliedStdDevQuote", ptr %this1, i32 0, i32 3
  %1 = load double, ptr %strike_, align 8, !tbaa !33
  %2 = load double, ptr %forwardValue, align 8, !tbaa !24
  %cmp = fcmp ogt double %1, %2
  br i1 %cmp, label %if.then, label %if.else

if.then:                                          ; preds = %entry
  %strike_4 = getelementptr inbounds nuw %"class.QuantLib::EurodollarFuturesImpliedStdDevQuote", ptr %this1, i32 0, i32 3
  %3 = load double, ptr %strike_4, align 8, !tbaa !33
  %4 = load double, ptr %forwardValue, align 8, !tbaa !24
  %putPrice_ = getelementptr inbounds nuw %"class.QuantLib::EurodollarFuturesImpliedStdDevQuote", ptr %this1, i32 0, i32 8
  %call5 = call noundef nonnull align 8 dereferenceable(16) ptr @_ZNK8QuantLib6HandleINS_5QuoteEEptEv(ptr noundef nonnull align 8 dereferenceable(16) %putPrice_)
  %call6 = call noundef ptr @_ZNK5boost10shared_ptrIN8QuantLib5QuoteEEptEv(ptr noundef nonnull align 8 dereferenceable(16) %call5)
  %vtable7 = load ptr, ptr %call6, align 8, !tbaa !20
  %vfn8 = getelementptr inbounds ptr, ptr %vtable7, i64 2
  %5 = load ptr, ptr %vfn8, align 8
  %call9 = call noundef double %5(ptr noundef nonnull align 8 dereferenceable(8) %call6)
  %impliedStdev_ = getelementptr inbounds nuw %"class.QuantLib::EurodollarFuturesImpliedStdDevQuote", ptr %this1, i32 0, i32 2
  %6 = load double, ptr %impliedStdev_, align 8, !tbaa !28
  %accuracy_ = getelementptr inbounds nuw %"class.QuantLib::EurodollarFuturesImpliedStdDevQuote", ptr %this1, i32 0, i32 4
  %7 = load double, ptr %accuracy_, align 8, !tbaa !34
  %maxIter_ = getelementptr inbounds nuw %"class.QuantLib::EurodollarFuturesImpliedStdDevQuote", ptr %this1, i32 0, i32 5
  %8 = load i32, ptr %maxIter_, align 8, !tbaa !35
  %call10 = call noundef double @_ZN8QuantLib25blackFormulaImpliedStdDevENS_6Option4TypeEdddddddj(i32 noundef 1, double noundef %3, double noundef %4, double noundef %call9, double noundef 1.000000e+00, double noundef 0.000000e+00, double noundef %6, double noundef %7, i32 noundef %8)
  %impliedStdev_11 = getelementptr inbounds nuw %"class.QuantLib::EurodollarFuturesImpliedStdDevQuote", ptr %this1, i32 0, i32 2
  store double %call10, ptr %impliedStdev_11, align 8, !tbaa !28
  br label %if.end

if.else:                                          ; preds = %entry
  %strike_12 = getelementptr inbounds nuw %"class.QuantLib::EurodollarFuturesImpliedStdDevQuote", ptr %this1, i32 0, i32 3
  %9 = load double, ptr %strike_12, align 8, !tbaa !33
  %10 = load double, ptr %forwardValue, align 8, !tbaa !24
  %callPrice_ = getelementptr inbounds nuw %"class.QuantLib::EurodollarFuturesImpliedStdDevQuote", ptr %this1, i32 0, i32 7
  %call13 = call noundef nonnull align 8 dereferenceable(16) ptr @_ZNK8QuantLib6HandleINS_5QuoteEEptEv(ptr noundef nonnull align 8 dereferenceable(16) %callPrice_)
  %call14 = call noundef ptr @_ZNK5boost10shared_ptrIN8QuantLib5QuoteEEptEv(ptr noundef nonnull align 8 dereferenceable(16) %call13)
  %vtable15 = load ptr, ptr %call14, align 8, !tbaa !20
  %vfn16 = getelementptr inbounds ptr, ptr %vtable15, i64 2
  %11 = load ptr, ptr %vfn16, align 8
  %call17 = call noundef double %11(ptr noundef nonnull align 8 dereferenceable(8) %call14)
  %impliedStdev_18 = getelementptr inbounds nuw %"class.QuantLib::EurodollarFuturesImpliedStdDevQuote", ptr %this1, i32 0, i32 2
  %12 = load double, ptr %impliedStdev_18, align 8, !tbaa !28
  %accuracy_19 = getelementptr inbounds nuw %"class.QuantLib::EurodollarFuturesImpliedStdDevQuote", ptr %this1, i32 0, i32 4
  %13 = load double, ptr %accuracy_19, align 8, !tbaa !34
  %maxIter_20 = getelementptr inbounds nuw %"class.QuantLib::EurodollarFuturesImpliedStdDevQuote", ptr %this1, i32 0, i32 5
  %14 = load i32, ptr %maxIter_20, align 8, !tbaa !35
  %call21 = call noundef double @_ZN8QuantLib25blackFormulaImpliedStdDevENS_6Option4TypeEdddddddj(i32 noundef -1, double noundef %9, double noundef %10, double noundef %call17, double noundef 1.000000e+00, double noundef 0.000000e+00, double noundef %12, double noundef %13, i32 noundef %14)
  %impliedStdev_22 = getelementptr inbounds nuw %"class.QuantLib::EurodollarFuturesImpliedStdDevQuote", ptr %this1, i32 0, i32 2
  store double %call21, ptr %impliedStdev_22, align 8, !tbaa !28
  br label %if.end

if.end:                                           ; preds = %if.else, %if.then
  call void @llvm.lifetime.end.p0(i64 8, ptr %forwardValue) #12
  ret void
}