; Function Attrs: mustprogress uwtable
define void @_ZNK8QuantLib35EurodollarFuturesImpliedStdDevQuote19performCalculationsEv(ptr noundef nonnull align 8 dereferenceable(104) %this) unnamed_addr #8 align 2 {
entry:
  %forward_ = getelementptr inbounds nuw i8, ptr %this, i64 56
  %call = tail call noundef nonnull align 8 dereferenceable(16) ptr @_ZNK8QuantLib6HandleINS_5QuoteEEptEv(ptr noundef nonnull align 8 dereferenceable(16) %forward_)
  %0 = load ptr, ptr %call, align 8, !tbaa !81
  %cmp.not.i = icmp eq ptr %0, null
  br i1 %cmp.not.i, label %cond.false.i, label %_ZNK5boost10shared_ptrIN8QuantLib5QuoteEEptEv.exit, !prof !80

cond.false.i:                                     ; preds = %entry
  tail call void @_ZN5boost16assertion_failedEPKcS1_S1_l(ptr noundef nonnull @.str.6, ptr noundef nonnull @__PRETTY_FUNCTION__._ZNK5boost10shared_ptrIN8QuantLib5QuoteEEptEv, ptr noundef nonnull @.str.7, i64 noundef 784)
  %.pre.i = load ptr, ptr %call, align 8, !tbaa !81
  br label %_ZNK5boost10shared_ptrIN8QuantLib5QuoteEEptEv.exit

_ZNK5boost10shared_ptrIN8QuantLib5QuoteEEptEv.exit: ; preds = %entry, %cond.false.i
  %1 = phi ptr [ %0, %entry ], [ %.pre.i, %cond.false.i ]
  %vtable = load ptr, ptr %1, align 8, !tbaa !33
  %vfn = getelementptr inbounds i8, ptr %vtable, i64 16
  %2 = load ptr, ptr %vfn, align 8
  %call3 = tail call noundef double %2(ptr noundef nonnull align 8 dereferenceable(8) %1)
  %sub = fsub double 1.000000e+02, %call3
  %strike_ = getelementptr inbounds nuw i8, ptr %this, i64 32
  %3 = load double, ptr %strike_, align 8, !tbaa !53
  %cmp = fcmp ogt double %3, %sub
  br i1 %cmp, label %if.then, label %if.else

if.then:                                          ; preds = %_ZNK5boost10shared_ptrIN8QuantLib5QuoteEEptEv.exit
  %putPrice_ = getelementptr inbounds nuw i8, ptr %this, i64 88
  %call5 = tail call noundef nonnull align 8 dereferenceable(16) ptr @_ZNK8QuantLib6HandleINS_5QuoteEEptEv(ptr noundef nonnull align 8 dereferenceable(16) %putPrice_)
  %4 = load ptr, ptr %call5, align 8, !tbaa !81
  %cmp.not.i3 = icmp eq ptr %4, null
  br i1 %cmp.not.i3, label %if.end.sink.split, label %if.end, !prof !80

if.else:                                          ; preds = %_ZNK5boost10shared_ptrIN8QuantLib5QuoteEEptEv.exit
  %callPrice_ = getelementptr inbounds nuw i8, ptr %this, i64 72
  %call13 = tail call noundef nonnull align 8 dereferenceable(16) ptr @_ZNK8QuantLib6HandleINS_5QuoteEEptEv(ptr noundef nonnull align 8 dereferenceable(16) %callPrice_)
  %5 = load ptr, ptr %call13, align 8, !tbaa !81
  %cmp.not.i7 = icmp eq ptr %5, null
  br i1 %cmp.not.i7, label %if.end.sink.split, label %if.end, !prof !80

if.end.sink.split:                                ; preds = %if.else, %if.then
  %call13.sink = phi ptr [ %call5, %if.then ], [ %call13, %if.else ]
  %.sink.ph = phi i32 [ 1, %if.then ], [ -1, %if.else ]
  tail call void @_ZN5boost16assertion_failedEPKcS1_S1_l(ptr noundef nonnull @.str.6, ptr noundef nonnull @__PRETTY_FUNCTION__._ZNK5boost10shared_ptrIN8QuantLib5QuoteEEptEv, ptr noundef nonnull @.str.7, i64 noundef 784)
  %.pre.i9 = load ptr, ptr %call13.sink, align 8, !tbaa !81
  br label %if.end

if.end:                                           ; preds = %if.end.sink.split, %if.else, %if.then
  %.sink17 = phi ptr [ %4, %if.then ], [ %5, %if.else ], [ %.pre.i9, %if.end.sink.split ]
  %.sink = phi i32 [ 1, %if.then ], [ -1, %if.else ], [ %.sink.ph, %if.end.sink.split ]
  %vtable15 = load ptr, ptr %.sink17, align 8, !tbaa !33
  %vfn16 = getelementptr inbounds i8, ptr %vtable15, i64 16
  %6 = load ptr, ptr %vfn16, align 8
  %call17 = tail call noundef double %6(ptr noundef nonnull align 8 dereferenceable(8) %.sink17)
  %impliedStdev_18 = getelementptr inbounds nuw i8, ptr %this, i64 24
  %7 = load double, ptr %impliedStdev_18, align 8, !tbaa !46
  %accuracy_19 = getelementptr inbounds nuw i8, ptr %this, i64 40
  %8 = load double, ptr %accuracy_19, align 8, !tbaa !54
  %maxIter_20 = getelementptr inbounds nuw i8, ptr %this, i64 48
  %9 = load i32, ptr %maxIter_20, align 8, !tbaa !55
  %call21 = tail call noundef double @_ZN8QuantLib25blackFormulaImpliedStdDevENS_6Option4TypeEdddddddj(i32 noundef %.sink, double noundef %3, double noundef %sub, double noundef %call17, double noundef 1.000000e+00, double noundef 0.000000e+00, double noundef %7, double noundef %8, i32 noundef %9)
  store double %call21, ptr %impliedStdev_18, align 8, !tbaa !46
  ret void
}